target datalayout = "e-m:e-p270:32:32-p271:32:32-p272:64:64-i64:64-i128:128-f80:128-n8:16:32:64-S128"
target triple = "x86_64-pc-linux-gnu"

%struct.Hacl_Hash_SHA3_hash_buf_s = type { i8, ptr }
%struct.Hacl_Hash_SHA3_state_t_s = type { %struct.Hacl_Hash_SHA3_hash_buf_s, ptr, i64 }

; Function Attrs: nounwind uwtable
define hidden void @python_hashlib_Hacl_Hash_SHA3_free(ptr noundef %0) #0 {
  %2 = alloca ptr, align 8
  %3 = alloca %struct.Hacl_Hash_SHA3_state_t_s, align 8
  %4 = alloca ptr, align 8
  %5 = alloca %struct.Hacl_Hash_SHA3_hash_buf_s, align 8
  %6 = alloca ptr, align 8
  store ptr %0, ptr %2, align 8, !tbaa !28
  call void @llvm.lifetime.start.p0(i64 32, ptr %3) #10
  %7 = load ptr, ptr %2, align 8, !tbaa !28
  call void @llvm.memcpy.p0.p0.i64(ptr align 8 %3, ptr align 8 %7, i64 32, i1 false), !tbaa.struct !37
  call void @llvm.lifetime.start.p0(i64 8, ptr %4) #10
  %8 = getelementptr inbounds nuw %struct.Hacl_Hash_SHA3_state_t_s, ptr %3, i32 0, i32 1
  %9 = load ptr, ptr %8, align 8, !tbaa !34
  store ptr %9, ptr %4, align 8, !tbaa !9
  call void @llvm.lifetime.start.p0(i64 16, ptr %5) #10
  %10 = getelementptr inbounds nuw %struct.Hacl_Hash_SHA3_state_t_s, ptr %3, i32 0, i32 0
  call void @llvm.memcpy.p0.p0.i64(ptr align 8 %5, ptr align 8 %10, i64 16, i1 false), !tbaa.struct !30
  call void @llvm.lifetime.start.p0(i64 8, ptr %6) #10
  %11 = getelementptr inbounds nuw %struct.Hacl_Hash_SHA3_hash_buf_s, ptr %5, i32 0, i32 1
  %12 = load ptr, ptr %11, align 8, !tbaa !33
  store ptr %12, ptr %6, align 8, !tbaa !6
  %13 = load ptr, ptr %6, align 8, !tbaa !6
  call void @free(ptr noundef %13) #10
  %14 = load ptr, ptr %4, align 8, !tbaa !9
  call void @free(ptr noundef %14) #10
  %15 = load ptr, ptr %2, align 8, !tbaa !28
  call void @free(ptr noundef %15) #10
  call void @llvm.lifetime.end.p0(i64 8, ptr %6) #10
  call void @llvm.lifetime.end.p0(i64 16, ptr %5) #10
  call void @llvm.lifetime.end.p0(i64 8, ptr %4) #10
  call void @llvm.lifetime.end.p0(i64 32, ptr %3) #10
  ret void
}