; Function Attrs: mustprogress nounwind willreturn uwtable
define hidden void @python_hashlib_Hacl_Hash_SHA3_free(ptr noundef captures(none) %0) local_unnamed_addr #9 {
  %.sroa.4.0..sroa_idx = getelementptr inbounds nuw i8, ptr %0, i64 8
  %.sroa.4.0.copyload = load ptr, ptr %.sroa.4.0..sroa_idx, align 8, !tbaa !20
  %.sroa.5.0..sroa_idx = getelementptr inbounds nuw i8, ptr %0, i64 16
  %.sroa.5.0.copyload = load ptr, ptr %.sroa.5.0..sroa_idx, align 8, !tbaa !22
  tail call void @free(ptr noundef %.sroa.4.0.copyload) #19
  tail call void @free(ptr noundef %.sroa.5.0.copyload) #19
  tail call void @free(ptr noundef %0) #19
  ret void
}